target datalayout = "e-m:e-p270:32:32-p271:32:32-p272:64:64-i64:64-i128:128-f80:128-n8:16:32:64-S128"
target triple = "x86_64-unknown-linux-gnu"

%"class.icu_75::UnicodeString" = type { %"class.icu_75::Replaceable", %"union.icu_75::UnicodeString::StackBufferOrFields" }
%"class.icu_75::Replaceable" = type { %"class.icu_75::UObject" }
%"class.icu_75::UObject" = type { ptr }
%"union.icu_75::UnicodeString::StackBufferOrFields" = type { %struct.anon.0, [32 x i8] }
%struct.anon.0 = type { i16, i32, i32, ptr }
%"class.icu_75::UVector" = type { %"class.icu_75::UObject", i32, i32, ptr, ptr, ptr }
%"class.icu_75::UXMLElement" = type { %"class.icu_75::UObject", ptr, ptr, %"class.icu_75::UnicodeString", %"class.icu_75::UVector", %"class.icu_75::UVector", %"class.icu_75::UVector", ptr }

@_ZTVN6icu_7511UXMLElementE = unnamed_addr constant { [5 x ptr] } { [5 x ptr] [ptr null, ptr @_ZTIN6icu_7511UXMLElementE, ptr @_ZN6icu_7511UXMLElementD1Ev, ptr @_ZN6icu_7511UXMLElementD0Ev, ptr @_ZNK6icu_7511UXMLElement17getDynamicClassIDEv] }, align 8

; Function Attrs: mustprogress nounwind uwtable
define linkonce_odr noundef i32 @_ZNK6icu_757UVector4sizeEv(ptr noundef nonnull align 8 dereferenceable(40) %this) #0 comdat align 2 {
entry:
  %this.addr = alloca ptr, align 8
  store ptr %this, ptr %this.addr, align 8
  %this1 = load ptr, ptr %this.addr, align 8
  %count = getelementptr inbounds %"class.icu_75::UVector", ptr %this1, i32 0, i32 1
  %0 = load i32, ptr %count, align 8
  ret i32 %0
}

; Function Attrs: mustprogress nounwind uwtable
define void @_ZN6icu_7511UXMLElementD2Ev(ptr noundef nonnull align 8 dereferenceable(216) %this) unnamed_addr #0 align 2 personality ptr @__gxx_personality_v0 {
entry:
  %this.addr = alloca ptr, align 8
  %i = alloca i32, align 4
  store ptr %this, ptr %this.addr, align 8
  %this1 = load ptr, ptr %this.addr, align 8
  store ptr getelementptr inbounds ({ [5 x ptr] }, ptr @_ZTVN6icu_7511UXMLElementE, i32 0, i32 0, i32 2), ptr %this1, align 8
  %fAttValues = getelementptr inbounds %"class.icu_75::UXMLElement", ptr %this1, i32 0, i32 5
  %call = invoke noundef i32 @_ZNK6icu_757UVector4sizeEv(ptr noundef nonnull align 8 dereferenceable(40) %fAttValues)
          to label %invoke.cont unwind label %terminate.lpad

invoke.cont:                                      ; preds = %entry
  %sub = sub nsw i32 %call, 1
  store i32 %sub, ptr %i, align 4
  br label %for.cond

for.cond:                                         ; preds = %for.inc, %invoke.cont
  %0 = load i32, ptr %i, align 4
  %cmp = icmp sge i32 %0, 0
  br i1 %cmp, label %for.body, label %for.end

for.body:                                         ; preds = %for.cond
  %fAttValues2 = getelementptr inbounds %"class.icu_75::UXMLElement", ptr %this1, i32 0, i32 5
  %1 = load i32, ptr %i, align 4
  %call4 = invoke noundef ptr @_ZNK6icu_757UVector9elementAtEi(ptr noundef nonnull align 8 dereferenceable(40) %fAttValues2, i32 noundef %1)
          to label %invoke.cont3 unwind label %terminate.lpad

invoke.cont3:                                     ; preds = %for.body
  %isnull = icmp eq ptr %call4, null
  br i1 %isnull, label %delete.end, label %delete.notnull

delete.notnull:                                   ; preds = %invoke.cont3
  %vtable = load ptr, ptr %call4, align 8
  %vfn = getelementptr inbounds ptr, ptr %vtable, i64 1
  %2 = load ptr, ptr %vfn, align 8
  call void %2(ptr noundef nonnull align 8 dereferenceable(8) %call4) #6
  br label %delete.end

delete.end:                                       ; preds = %delete.notnull, %invoke.cont3
  br label %for.inc

for.inc:                                          ; preds = %delete.end
  %3 = load i32, ptr %i, align 4
  %dec = add nsw i32 %3, -1
  store i32 %dec, ptr %i, align 4
  br label %for.cond, !llvm.loop !17

for.end:                                          ; preds = %for.cond
  %fChildren = getelementptr inbounds %"class.icu_75::UXMLElement", ptr %this1, i32 0, i32 6
  %call6 = invoke noundef i32 @_ZNK6icu_757UVector4sizeEv(ptr noundef nonnull align 8 dereferenceable(40) %fChildren)
          to label %invoke.cont5 unwind label %terminate.lpad

invoke.cont5:                                     ; preds = %for.end
  %sub7 = sub nsw i32 %call6, 1
  store i32 %sub7, ptr %i, align 4
  br label %for.cond8

for.cond8:                                        ; preds = %for.inc19, %invoke.cont5
  %4 = load i32, ptr %i, align 4
  %cmp9 = icmp sge i32 %4, 0
  br i1 %cmp9, label %for.body10, label %for.end21

for.body10:                                       ; preds = %for.cond8
  %fChildren11 = getelementptr inbounds %"class.icu_75::UXMLElement", ptr %this1, i32 0, i32 6
  %5 = load i32, ptr %i, align 4
  %call13 = invoke noundef ptr @_ZNK6icu_757UVector9elementAtEi(ptr noundef nonnull align 8 dereferenceable(40) %fChildren11, i32 noundef %5)
          to label %invoke.cont12 unwind label %terminate.lpad

invoke.cont12:                                    ; preds = %for.body10
  %isnull14 = icmp eq ptr %call13, null
  br i1 %isnull14, label %delete.end18, label %delete.notnull15

delete.notnull15:                                 ; preds = %invoke.cont12
  %vtable16 = load ptr, ptr %call13, align 8
  %vfn17 = getelementptr inbounds ptr, ptr %vtable16, i64 1
  %6 = load ptr, ptr %vfn17, align 8
  call void %6(ptr noundef nonnull align 8 dereferenceable(8) %call13) #6
  br label %delete.end18

delete.end18:                                     ; preds = %delete.notnull15, %invoke.cont12
  br label %for.inc19

for.inc19:                                        ; preds = %delete.end18
  %7 = load i32, ptr %i, align 4
  %dec20 = add nsw i32 %7, -1
  store i32 %dec20, ptr %i, align 4
  br label %for.cond8, !llvm.loop !18

for.end21:                                        ; preds = %for.cond8
  %fChildren22 = getelementptr inbounds %"class.icu_75::UXMLElement", ptr %this1, i32 0, i32 6
  call void @_ZN6icu_757UVectorD1Ev(ptr noundef nonnull align 8 dereferenceable(40) %fChildren22) #6
  %fAttValues23 = getelementptr inbounds %"class.icu_75::UXMLElement", ptr %this1, i32 0, i32 5
  call void @_ZN6icu_757UVectorD1Ev(ptr noundef nonnull align 8 dereferenceable(40) %fAttValues23) #6
  %fAttNames = getelementptr inbounds %"class.icu_75::UXMLElement", ptr %this1, i32 0, i32 4
  call void @_ZN6icu_757UVectorD1Ev(ptr noundef nonnull align 8 dereferenceable(40) %fAttNames) #6
  %fContent = getelementptr inbounds %"class.icu_75::UXMLElement", ptr %this1, i32 0, i32 3
  call void @_ZN6icu_7513UnicodeStringD1Ev(ptr noundef nonnull align 8 dereferenceable(64) %fContent) #6
  call void @_ZN6icu_757UObjectD2Ev(ptr noundef nonnull align 8 dereferenceable(8) %this1) #6
  ret void

terminate.lpad:                                   ; preds = %for.body10, %for.end, %for.body, %entry
  %8 = landingpad { ptr, i32 }
          catch ptr null
  %9 = extractvalue { ptr, i32 } %8, 0
  call void @__clang_call_terminate(ptr %9) #7
  unreachable
}