; Function Attrs: mustprogress nounwind uwtable
define void @_ZN6icu_7511UXMLElementD2Ev(ptr noundef nonnull align 8 dereferenceable(216) %this) unnamed_addr #4 align 2 personality ptr @__gxx_personality_v0 {
entry:
  store ptr getelementptr inbounds ({ [5 x ptr] }, ptr @_ZTVN6icu_7511UXMLElementE, i64 0, i32 0, i64 2), ptr %this, align 8
  %fAttValues = getelementptr inbounds i8, ptr %this, i64 128
  %count.i = getelementptr inbounds i8, ptr %this, i64 136
  %0 = load i32, ptr %count.i, align 8
  %cmp8 = icmp sgt i32 %0, 0
  br i1 %cmp8, label %for.body, label %for.end

for.body:                                         ; preds = %entry, %for.inc
  %i.09.in = phi i32 [ %i.09, %for.inc ], [ %0, %entry ]
  %i.09 = add nsw i32 %i.09.in, -1
  %call4 = invoke noundef ptr @_ZNK6icu_757UVector9elementAtEi(ptr noundef nonnull align 8 dereferenceable(40) %fAttValues, i32 noundef %i.09)
          to label %invoke.cont3 unwind label %terminate.lpad.loopexit.split-lp

invoke.cont3:                                     ; preds = %for.body
  %isnull = icmp eq ptr %call4, null
  br i1 %isnull, label %for.inc, label %delete.notnull

delete.notnull:                                   ; preds = %invoke.cont3
  %vtable = load ptr, ptr %call4, align 8
  %vfn = getelementptr inbounds i8, ptr %vtable, i64 8
  %1 = load ptr, ptr %vfn, align 8
  tail call void %1(ptr noundef nonnull align 8 dereferenceable(8) %call4) #11
  br label %for.inc

for.inc:                                          ; preds = %invoke.cont3, %delete.notnull
  %cmp = icmp ugt i32 %i.09.in, 1
  br i1 %cmp, label %for.body, label %for.end, !llvm.loop !16

for.end:                                          ; preds = %for.inc, %entry
  %fChildren = getelementptr inbounds i8, ptr %this, i64 168
  %count.i6 = getelementptr inbounds i8, ptr %this, i64 176
  %2 = load i32, ptr %count.i6, align 8
  %cmp911 = icmp sgt i32 %2, 0
  br i1 %cmp911, label %for.body10, label %for.end21

for.body10:                                       ; preds = %for.end, %for.inc19
  %i.112.in = phi i32 [ %i.112, %for.inc19 ], [ %2, %for.end ]
  %i.112 = add nsw i32 %i.112.in, -1
  %call13 = invoke noundef ptr @_ZNK6icu_757UVector9elementAtEi(ptr noundef nonnull align 8 dereferenceable(40) %fChildren, i32 noundef %i.112)
          to label %invoke.cont12 unwind label %terminate.lpad.loopexit

invoke.cont12:                                    ; preds = %for.body10
  %isnull14 = icmp eq ptr %call13, null
  br i1 %isnull14, label %for.inc19, label %delete.notnull15

delete.notnull15:                                 ; preds = %invoke.cont12
  %vtable16 = load ptr, ptr %call13, align 8
  %vfn17 = getelementptr inbounds i8, ptr %vtable16, i64 8
  %3 = load ptr, ptr %vfn17, align 8
  tail call void %3(ptr noundef nonnull align 8 dereferenceable(8) %call13) #11
  br label %for.inc19

for.inc19:                                        ; preds = %invoke.cont12, %delete.notnull15
  %cmp9 = icmp ugt i32 %i.112.in, 1
  br i1 %cmp9, label %for.body10, label %for.end21, !llvm.loop !17

for.end21:                                        ; preds = %for.inc19, %for.end
  tail call void @_ZN6icu_757UVectorD1Ev(ptr noundef nonnull align 8 dereferenceable(40) %fChildren) #11
  tail call void @_ZN6icu_757UVectorD1Ev(ptr noundef nonnull align 8 dereferenceable(40) %fAttValues) #11
  %fAttNames = getelementptr inbounds i8, ptr %this, i64 88
  tail call void @_ZN6icu_757UVectorD1Ev(ptr noundef nonnull align 8 dereferenceable(40) %fAttNames) #11
  %fContent = getelementptr inbounds i8, ptr %this, i64 24
  tail call void @_ZN6icu_7513UnicodeStringD1Ev(ptr noundef nonnull align 8 dereferenceable(64) %fContent) #11
  tail call void @_ZN6icu_757UObjectD2Ev(ptr noundef nonnull align 8 dereferenceable(8) %this) #11
  ret void

terminate.lpad.loopexit:                          ; preds = %for.body10
  %lpad.loopexit = landingpad { ptr, i32 }
          catch ptr null
  br label %terminate.lpad

terminate.lpad.loopexit.split-lp:                 ; preds = %for.body
  %lpad.loopexit.split-lp = landingpad { ptr, i32 }
          catch ptr null
  br label %terminate.lpad

terminate.lpad:                                   ; preds = %terminate.lpad.loopexit.split-lp, %terminate.lpad.loopexit
  %lpad.phi = phi { ptr, i32 } [ %lpad.loopexit, %terminate.lpad.loopexit ], [ %lpad.loopexit.split-lp, %terminate.lpad.loopexit.split-lp ]
  %4 = extractvalue { ptr, i32 } %lpad.phi, 0
  tail call void @__clang_call_terminate(ptr %4) #12
  unreachable
}